; Function Attrs: nounwind uwtable
define internal void @heapctypewithdict_dealloc(ptr noundef %0) #0 {
  %2 = getelementptr i8, ptr %0, i64 8
  %.val = load ptr, ptr %2, align 8, !tbaa !9
  %3 = getelementptr inbounds nuw i8, ptr %0, i64 16
  %4 = load ptr, ptr %3, align 8, !tbaa !54
  %.not.i4 = icmp eq ptr %4, null
  br i1 %.not.i4, label %Py_XDECREF.exit, label %5

5:                                                ; preds = %1
  %6 = load i32, ptr %4, align 8, !tbaa !8
  %.not.i.i = icmp sgt i32 %6, -1
  br i1 %.not.i.i, label %7, label %Py_XDECREF.exit

7:                                                ; preds = %5
  %8 = add nsw i32 %6, -1
  store i32 %8, ptr %4, align 8, !tbaa !8
  %9 = icmp eq i32 %8, 0
  br i1 %9, label %10, label %Py_XDECREF.exit

10:                                               ; preds = %7
  tail call void @_Py_Dealloc(ptr noundef nonnull %4) #8
  br label %Py_XDECREF.exit

Py_XDECREF.exit:                                  ; preds = %1, %5, %7, %10
  tail call void @PyObject_Free(ptr noundef nonnull %0) #8
  %11 = load i32, ptr %.val, align 8, !tbaa !8
  %.not.i = icmp sgt i32 %11, -1
  br i1 %.not.i, label %12, label %Py_DECREF.exit

12:                                               ; preds = %Py_XDECREF.exit
  %13 = add nsw i32 %11, -1
  store i32 %13, ptr %.val, align 8, !tbaa !8
  %14 = icmp eq i32 %13, 0
  br i1 %14, label %15, label %Py_DECREF.exit

15:                                               ; preds = %12
  tail call void @_Py_Dealloc(ptr noundef nonnull %.val) #8
  br label %Py_DECREF.exit

Py_DECREF.exit:                                   ; preds = %Py_XDECREF.exit, %12, %15
  ret void
}